target datalayout = "e-m:e-p270:32:32-p271:32:32-p272:64:64-i64:64-i128:128-f80:128-n8:16:32:64-S128"
target triple = "x86_64-pc-linux-gnu"

%"class.cv::Mat" = type { i32, i32, i32, i32, ptr, ptr, ptr, ptr, ptr, ptr, %"struct.cv::MatSize", %"struct.cv::MatStep" }
%"struct.cv::MatSize" = type { ptr }
%"struct.cv::MatStep" = type { ptr, [2 x i64] }
%"struct.std::_Vector_base.19" = type { %"struct.std::_Vector_base<double, std::allocator<double>>::_Vector_impl" }
%"struct.std::_Vector_base<double, std::allocator<double>>::_Vector_impl" = type { %"struct.std::_Vector_base<double, std::allocator<double>>::_Vector_impl_data" }
%"struct.std::_Vector_base<double, std::allocator<double>>::_Vector_impl_data" = type { ptr, ptr, ptr }
%"class.cv::text::OCRHMMDecoder::ClassifierCallback" = type { ptr }
%"class.cv::text::OCRHMMClassifierCNN" = type { %"class.cv::text::OCRHMMDecoder::ClassifierCallback", i32, i32, %"class.cv::Mat", %"class.cv::Mat", %"class.cv::Mat", %"class.cv::Mat", %"class.cv::Mat", %"class.cv::Mat", i32, i32, i32, i32, i32, double }

; Function Attrs: mustprogress nounwind uwtable
define linkonce_odr hidden noundef nonnull align 8 dereferenceable(8) ptr @_ZNSt6vectorIdSaIdEEixEm(ptr noundef nonnull align 8 dereferenceable(24) %0, i64 noundef %1) #8 comdat align 2 {
  %3 = alloca ptr, align 8
  %4 = alloca i64, align 8
  store ptr %0, ptr %3, align 8, !tbaa !63
  store i64 %1, ptr %4, align 8, !tbaa !52
  %5 = load ptr, ptr %3, align 8
  %6 = getelementptr inbounds nuw %"struct.std::_Vector_base.19", ptr %5, i32 0, i32 0
  %7 = getelementptr inbounds nuw %"struct.std::_Vector_base<double, std::allocator<double>>::_Vector_impl_data", ptr %6, i32 0, i32 0
  %8 = load ptr, ptr %7, align 8, !tbaa !67
  %9 = load i64, ptr %4, align 8, !tbaa !52
  %10 = getelementptr inbounds nuw double, ptr %8, i64 %9
  ret ptr %10
}

; Function Attrs: inlinehint mustprogress nounwind uwtable
define linkonce_odr hidden noundef nonnull align 8 dereferenceable(8) ptr @_ZN2cv3Mat2atIdEERT_ii(ptr noundef nonnull align 8 dereferenceable(96) %0, i32 noundef %1, i32 noundef %2) #5 comdat align 2 {
  %4 = alloca ptr, align 8
  %5 = alloca i32, align 4
  %6 = alloca i32, align 4
  store ptr %0, ptr %4, align 8, !tbaa !8
  store i32 %1, ptr %5, align 4, !tbaa !18
  store i32 %2, ptr %6, align 4, !tbaa !18
  %7 = load ptr, ptr %4, align 8
  %8 = getelementptr inbounds nuw %"class.cv::Mat", ptr %7, i32 0, i32 4
  %9 = load ptr, ptr %8, align 8, !tbaa !161
  %10 = getelementptr inbounds nuw %"class.cv::Mat", ptr %7, i32 0, i32 11
  %11 = getelementptr inbounds nuw %"struct.cv::MatStep", ptr %10, i32 0, i32 0
  %12 = load ptr, ptr %11, align 8, !tbaa !162
  %13 = getelementptr inbounds i64, ptr %12, i64 0
  %14 = load i64, ptr %13, align 8, !tbaa !52
  %15 = load i32, ptr %5, align 4, !tbaa !18
  %16 = sext i32 %15 to i64
  %17 = mul i64 %14, %16
  %18 = getelementptr inbounds nuw i8, ptr %9, i64 %17
  %19 = load i32, ptr %6, align 4, !tbaa !18
  %20 = sext i32 %19 to i64
  %21 = getelementptr inbounds double, ptr %18, i64 %20
  ret ptr %21
}

; Function Attrs: inlinehint mustprogress nounwind uwtable
define linkonce_odr hidden noundef nonnull align 4 dereferenceable(4) ptr @_ZN2cv3Mat2atIfEERT_ii(ptr noundef nonnull align 8 dereferenceable(96) %0, i32 noundef %1, i32 noundef %2) #5 comdat align 2 {
  %4 = alloca ptr, align 8
  %5 = alloca i32, align 4
  %6 = alloca i32, align 4
  store ptr %0, ptr %4, align 8, !tbaa !8
  store i32 %1, ptr %5, align 4, !tbaa !18
  store i32 %2, ptr %6, align 4, !tbaa !18
  %7 = load ptr, ptr %4, align 8
  %8 = getelementptr inbounds nuw %"class.cv::Mat", ptr %7, i32 0, i32 4
  %9 = load ptr, ptr %8, align 8, !tbaa !161
  %10 = getelementptr inbounds nuw %"class.cv::Mat", ptr %7, i32 0, i32 11
  %11 = getelementptr inbounds nuw %"struct.cv::MatStep", ptr %10, i32 0, i32 0
  %12 = load ptr, ptr %11, align 8, !tbaa !162
  %13 = getelementptr inbounds i64, ptr %12, i64 0
  %14 = load i64, ptr %13, align 8, !tbaa !52
  %15 = load i32, ptr %5, align 4, !tbaa !18
  %16 = sext i32 %15 to i64
  %17 = mul i64 %14, %16
  %18 = getelementptr inbounds nuw i8, ptr %9, i64 %17
  %19 = load i32, ptr %6, align 4, !tbaa !18
  %20 = sext i32 %19 to i64
  %21 = getelementptr inbounds float, ptr %18, i64 %20
  ret ptr %21
}

; Function Attrs: mustprogress uwtable
define hidden noundef double @_ZN2cv4text19OCRHMMClassifierCNN12eval_featureERNS_3MatERSt6vectorIdSaIdEE(ptr noundef nonnull align 8 dereferenceable(624) %0, ptr noundef nonnull align 8 dereferenceable(96) %1, ptr noundef nonnull align 8 dereferenceable(24) %2) #4 align 2 {
  %4 = alloca ptr, align 8
  %5 = alloca ptr, align 8
  %6 = alloca ptr, align 8
  %7 = alloca i32, align 4
  %8 = alloca i32, align 4
  %9 = alloca i32, align 4
  %10 = alloca i32, align 4
  %11 = alloca i32, align 4
  %12 = alloca i32, align 4
  %13 = alloca double, align 8
  %14 = alloca i32, align 4
  %15 = alloca i32, align 4
  store ptr %0, ptr %4, align 8, !tbaa !182
  store ptr %1, ptr %5, align 8, !tbaa !8
  store ptr %2, ptr %6, align 8, !tbaa !63
  %16 = load ptr, ptr %4, align 8
  call void @llvm.lifetime.start.p0(i64 4, ptr %7) #3
  store i32 0, ptr %7, align 4, !tbaa !18
  br label %17

17:                                               ; preds = %51, %3
  %18 = load i32, ptr %7, align 4, !tbaa !18
  %19 = getelementptr inbounds nuw %"class.cv::text::OCRHMMClassifierCNN", ptr %16, i32 0, i32 2
  %20 = load i32, ptr %19, align 4, !tbaa !198
  %21 = icmp slt i32 %18, %20
  br i1 %21, label %23, label %22

22:                                               ; preds = %17
  store i32 2, ptr %8, align 4
  call void @llvm.lifetime.end.p0(i64 4, ptr %7) #3
  br label %54

23:                                               ; preds = %17
  call void @llvm.lifetime.start.p0(i64 4, ptr %9) #3
  store i32 0, ptr %9, align 4, !tbaa !18
  br label %24

24:                                               ; preds = %47, %23
  %25 = load i32, ptr %9, align 4, !tbaa !18
  %26 = getelementptr inbounds nuw %"class.cv::text::OCRHMMClassifierCNN", ptr %16, i32 0, i32 1
  %27 = load i32, ptr %26, align 8, !tbaa !199
  %28 = icmp slt i32 %25, %27
  br i1 %28, label %30, label %29

29:                                               ; preds = %24
  store i32 5, ptr %8, align 4
  call void @llvm.lifetime.end.p0(i64 4, ptr %9) #3
  br label %50

30:                                               ; preds = %24
  %31 = getelementptr inbounds nuw %"class.cv::text::OCRHMMClassifierCNN", ptr %16, i32 0, i32 5
  %32 = load i32, ptr %7, align 4, !tbaa !18
  %33 = load i32, ptr %9, align 4, !tbaa !18
  %34 = call noundef nonnull align 4 dereferenceable(4) ptr @_ZN2cv3Mat2atIfEERT_ii(ptr noundef nonnull align 8 dereferenceable(96) %31, i32 noundef %32, i32 noundef %33)
  %35 = load float, ptr %34, align 4, !tbaa !44
  %36 = fpext float %35 to double
  %37 = load ptr, ptr %5, align 8, !tbaa !8
  %38 = load i32, ptr %7, align 4, !tbaa !18
  %39 = call noundef nonnull align 8 dereferenceable(8) ptr @_ZN2cv3Mat2atIdEERT_ii(ptr noundef nonnull align 8 dereferenceable(96) %37, i32 noundef 0, i32 noundef %38)
  %40 = load double, ptr %39, align 8, !tbaa !102
  %41 = load ptr, ptr %6, align 8, !tbaa !63
  %42 = load i32, ptr %9, align 4, !tbaa !18
  %43 = sext i32 %42 to i64
  %44 = call noundef nonnull align 8 dereferenceable(8) ptr @_ZNSt6vectorIdSaIdEEixEm(ptr noundef nonnull align 8 dereferenceable(24) %41, i64 noundef %43) #3
  %45 = load double, ptr %44, align 8, !tbaa !102
  %46 = call double @llvm.fmuladd.f64(double %36, double %40, double %45)
  store double %46, ptr %44, align 8, !tbaa !102
  br label %47

47:                                               ; preds = %30
  %48 = load i32, ptr %9, align 4, !tbaa !18
  %49 = add nsw i32 %48, 1
  store i32 %49, ptr %9, align 4, !tbaa !18
  br label %24, !llvm.loop !246

50:                                               ; preds = %29
  br label %51

51:                                               ; preds = %50
  %52 = load i32, ptr %7, align 4, !tbaa !18
  %53 = add nsw i32 %52, 1
  store i32 %53, ptr %7, align 4, !tbaa !18
  br label %17, !llvm.loop !247

54:                                               ; preds = %22
  call void @llvm.lifetime.start.p0(i64 4, ptr %10) #3
  store i32 0, ptr %10, align 4, !tbaa !18
  call void @llvm.lifetime.start.p0(i64 4, ptr %11) #3
  store i32 1, ptr %11, align 4, !tbaa !18
  br label %55

55:                                               ; preds = %76, %54
  %56 = load i32, ptr %11, align 4, !tbaa !18
  %57 = getelementptr inbounds nuw %"class.cv::text::OCRHMMClassifierCNN", ptr %16, i32 0, i32 1
  %58 = load i32, ptr %57, align 8, !tbaa !199
  %59 = icmp slt i32 %56, %58
  br i1 %59, label %61, label %60

60:                                               ; preds = %55
  store i32 8, ptr %8, align 4
  call void @llvm.lifetime.end.p0(i64 4, ptr %11) #3
  br label %79

61:                                               ; preds = %55
  %62 = load ptr, ptr %6, align 8, !tbaa !63
  %63 = load i32, ptr %11, align 4, !tbaa !18
  %64 = sext i32 %63 to i64
  %65 = call noundef nonnull align 8 dereferenceable(8) ptr @_ZNSt6vectorIdSaIdEEixEm(ptr noundef nonnull align 8 dereferenceable(24) %62, i64 noundef %64) #3
  %66 = load double, ptr %65, align 8, !tbaa !102
  %67 = load ptr, ptr %6, align 8, !tbaa !63
  %68 = load i32, ptr %10, align 4, !tbaa !18
  %69 = sext i32 %68 to i64
  %70 = call noundef nonnull align 8 dereferenceable(8) ptr @_ZNSt6vectorIdSaIdEEixEm(ptr noundef nonnull align 8 dereferenceable(24) %67, i64 noundef %69) #3
  %71 = load double, ptr %70, align 8, !tbaa !102
  %72 = fcmp ogt double %66, %71
  br i1 %72, label %73, label %75

73:                                               ; preds = %61
  %74 = load i32, ptr %11, align 4, !tbaa !18
  store i32 %74, ptr %10, align 4, !tbaa !18
  br label %75

75:                                               ; preds = %73, %61
  br label %76

76:                                               ; preds = %75
  %77 = load i32, ptr %11, align 4, !tbaa !18
  %78 = add nsw i32 %77, 1
  store i32 %78, ptr %11, align 4, !tbaa !18
  br label %55, !llvm.loop !248

79:                                               ; preds = %60
  call void @llvm.lifetime.start.p0(i64 4, ptr %12) #3
  store i32 0, ptr %12, align 4, !tbaa !18
  br label %80

80:                                               ; preds = %100, %79
  %81 = load i32, ptr %12, align 4, !tbaa !18
  %82 = getelementptr inbounds nuw %"class.cv::text::OCRHMMClassifierCNN", ptr %16, i32 0, i32 1
  %83 = load i32, ptr %82, align 8, !tbaa !199
  %84 = icmp slt i32 %81, %83
  br i1 %84, label %86, label %85

85:                                               ; preds = %80
  store i32 11, ptr %8, align 4
  call void @llvm.lifetime.end.p0(i64 4, ptr %12) #3
  br label %103

86:                                               ; preds = %80
  %87 = load ptr, ptr %6, align 8, !tbaa !63
  %88 = load i32, ptr %12, align 4, !tbaa !18
  %89 = sext i32 %88 to i64
  %90 = call noundef nonnull align 8 dereferenceable(8) ptr @_ZNSt6vectorIdSaIdEEixEm(ptr noundef nonnull align 8 dereferenceable(24) %87, i64 noundef %89) #3
  %91 = load double, ptr %90, align 8, !tbaa !102
  %92 = fneg double %91
  %93 = call double @exp(double noundef %92) #3, !tbaa !18
  %94 = fadd double 1.000000e+00, %93
  %95 = fdiv double 1.000000e+00, %94
  %96 = load ptr, ptr %6, align 8, !tbaa !63
  %97 = load i32, ptr %12, align 4, !tbaa !18
  %98 = sext i32 %97 to i64
  %99 = call noundef nonnull align 8 dereferenceable(8) ptr @_ZNSt6vectorIdSaIdEEixEm(ptr noundef nonnull align 8 dereferenceable(24) %96, i64 noundef %98) #3
  store double %95, ptr %99, align 8, !tbaa !102
  br label %100

100:                                              ; preds = %86
  %101 = load i32, ptr %12, align 4, !tbaa !18
  %102 = add nsw i32 %101, 1
  store i32 %102, ptr %12, align 4, !tbaa !18
  br label %80, !llvm.loop !249

103:                                              ; preds = %85
  call void @llvm.lifetime.start.p0(i64 8, ptr %13) #3
  store double 0.000000e+00, ptr %13, align 8, !tbaa !102
  call void @llvm.lifetime.start.p0(i64 4, ptr %14) #3
  store i32 0, ptr %14, align 4, !tbaa !18
  br label %104

104:                                              ; preds = %118, %103
  %105 = load i32, ptr %14, align 4, !tbaa !18
  %106 = getelementptr inbounds nuw %"class.cv::text::OCRHMMClassifierCNN", ptr %16, i32 0, i32 1
  %107 = load i32, ptr %106, align 8, !tbaa !199
  %108 = icmp slt i32 %105, %107
  br i1 %108, label %110, label %109

109:                                              ; preds = %104
  store i32 14, ptr %8, align 4
  call void @llvm.lifetime.end.p0(i64 4, ptr %14) #3
  br label %121

110:                                              ; preds = %104
  %111 = load ptr, ptr %6, align 8, !tbaa !63
  %112 = load i32, ptr %14, align 4, !tbaa !18
  %113 = sext i32 %112 to i64
  %114 = call noundef nonnull align 8 dereferenceable(8) ptr @_ZNSt6vectorIdSaIdEEixEm(ptr noundef nonnull align 8 dereferenceable(24) %111, i64 noundef %113) #3
  %115 = load double, ptr %114, align 8, !tbaa !102
  %116 = load double, ptr %13, align 8, !tbaa !102
  %117 = fadd double %116, %115
  store double %117, ptr %13, align 8, !tbaa !102
  br label %118

118:                                              ; preds = %110
  %119 = load i32, ptr %14, align 4, !tbaa !18
  %120 = add nsw i32 %119, 1
  store i32 %120, ptr %14, align 4, !tbaa !18
  br label %104, !llvm.loop !250

121:                                              ; preds = %109
  call void @llvm.lifetime.start.p0(i64 4, ptr %15) #3
  store i32 0, ptr %15, align 4, !tbaa !18
  br label %122

122:                                              ; preds = %140, %121
  %123 = load i32, ptr %15, align 4, !tbaa !18
  %124 = getelementptr inbounds nuw %"class.cv::text::OCRHMMClassifierCNN", ptr %16, i32 0, i32 1
  %125 = load i32, ptr %124, align 8, !tbaa !199
  %126 = icmp slt i32 %123, %125
  br i1 %126, label %128, label %127

127:                                              ; preds = %122
  store i32 17, ptr %8, align 4
  call void @llvm.lifetime.end.p0(i64 4, ptr %15) #3
  br label %143

128:                                              ; preds = %122
  %129 = load ptr, ptr %6, align 8, !tbaa !63
  %130 = load i32, ptr %15, align 4, !tbaa !18
  %131 = sext i32 %130 to i64
  %132 = call noundef nonnull align 8 dereferenceable(8) ptr @_ZNSt6vectorIdSaIdEEixEm(ptr noundef nonnull align 8 dereferenceable(24) %129, i64 noundef %131) #3
  %133 = load double, ptr %132, align 8, !tbaa !102
  %134 = load double, ptr %13, align 8, !tbaa !102
  %135 = fdiv double %133, %134
  %136 = load ptr, ptr %6, align 8, !tbaa !63
  %137 = load i32, ptr %15, align 4, !tbaa !18
  %138 = sext i32 %137 to i64
  %139 = call noundef nonnull align 8 dereferenceable(8) ptr @_ZNSt6vectorIdSaIdEEixEm(ptr noundef nonnull align 8 dereferenceable(24) %136, i64 noundef %138) #3
  store double %135, ptr %139, align 8, !tbaa !102
  br label %140

140:                                              ; preds = %128
  %141 = load i32, ptr %15, align 4, !tbaa !18
  %142 = add nsw i32 %141, 1
  store i32 %142, ptr %15, align 4, !tbaa !18
  br label %122, !llvm.loop !251

143:                                              ; preds = %127
  %144 = load i32, ptr %10, align 4, !tbaa !18
  %145 = sitofp i32 %144 to double
  store i32 1, ptr %8, align 4
  call void @llvm.lifetime.end.p0(i64 8, ptr %13) #3
  call void @llvm.lifetime.end.p0(i64 4, ptr %10) #3
  ret double %145
}