; Function Attrs: mustprogress nofree nounwind memory(readwrite, inaccessiblemem: write) uwtable
define hidden noundef double @_ZN2cv4text19OCRHMMClassifierCNN12eval_featureERNS_3MatERSt6vectorIdSaIdEE(ptr noundef nonnull readonly align 8 captures(none) dereferenceable(624) %0, ptr noundef nonnull readonly align 8 captures(none) dereferenceable(96) %1, ptr noundef nonnull readonly align 8 captures(none) dereferenceable(24) %2) local_unnamed_addr #12 align 2 {
  %4 = getelementptr inbounds nuw i8, ptr %0, i64 12
  %5 = load i32, ptr %4, align 4, !tbaa !219
  %6 = icmp sgt i32 %5, 0
  %7 = getelementptr inbounds nuw i8, ptr %0, i64 8
  %8 = load i32, ptr %7, align 8, !tbaa !220
  br i1 %6, label %.preheader46.lr.ph, label %.preheader45

.preheader46.lr.ph:                               ; preds = %3
  %9 = icmp sgt i32 %8, 0
  %10 = getelementptr inbounds nuw i8, ptr %0, i64 224
  %11 = load ptr, ptr %10, align 8
  %12 = getelementptr inbounds nuw i8, ptr %1, i64 16
  %13 = load ptr, ptr %12, align 8
  %14 = load ptr, ptr %2, align 8
  br i1 %9, label %.preheader46.lr.ph.split.us, label %._crit_edge

.preheader46.lr.ph.split.us:                      ; preds = %.preheader46.lr.ph
  %15 = getelementptr inbounds nuw i8, ptr %0, i64 280
  %16 = load ptr, ptr %15, align 8
  %17 = load i64, ptr %16, align 8, !tbaa !45
  %wide.trip.count68 = zext nneg i32 %5 to i64
  %wide.trip.count = zext nneg i32 %8 to i64
  br label %.preheader46.us

.preheader46.us:                                  ; preds = %._crit_edge.us, %.preheader46.lr.ph.split.us
  %indvars.iv65 = phi i64 [ %indvars.iv.next66, %._crit_edge.us ], [ 0, %.preheader46.lr.ph.split.us ]
  %18 = mul i64 %17, %indvars.iv65
  %19 = getelementptr inbounds nuw i8, ptr %11, i64 %18
  %20 = getelementptr inbounds nuw double, ptr %13, i64 %indvars.iv65
  br label %21

21:                                               ; preds = %.preheader46.us, %21
  %indvars.iv = phi i64 [ 0, %.preheader46.us ], [ %indvars.iv.next, %21 ]
  %22 = getelementptr inbounds nuw float, ptr %19, i64 %indvars.iv
  %23 = load float, ptr %22, align 4, !tbaa !46
  %24 = fpext float %23 to double
  %25 = load double, ptr %20, align 8, !tbaa !149
  %26 = getelementptr inbounds nuw double, ptr %14, i64 %indvars.iv
  %27 = load double, ptr %26, align 8, !tbaa !149
  %28 = tail call double @llvm.fmuladd.f64(double %24, double %25, double %27)
  store double %28, ptr %26, align 8, !tbaa !149
  %indvars.iv.next = add nuw nsw i64 %indvars.iv, 1
  %exitcond.not = icmp eq i64 %indvars.iv.next, %wide.trip.count
  br i1 %exitcond.not, label %._crit_edge.us, label %21, !llvm.loop !310

._crit_edge.us:                                   ; preds = %21
  %indvars.iv.next66 = add nuw nsw i64 %indvars.iv65, 1
  %exitcond69.not = icmp eq i64 %indvars.iv.next66, %wide.trip.count68
  br i1 %exitcond69.not, label %.preheader45, label %.preheader46.us, !llvm.loop !311

.preheader45:                                     ; preds = %._crit_edge.us, %3
  %29 = getelementptr inbounds nuw i8, ptr %0, i64 8
  %30 = icmp sgt i32 %8, 1
  br i1 %30, label %.lr.ph, label %.preheader44

.lr.ph:                                           ; preds = %.preheader45
  %31 = load ptr, ptr %2, align 8, !tbaa !86
  %wide.trip.count73 = zext nneg i32 %8 to i64
  br label %35

.preheader44.thread:                              ; preds = %35
  %32 = uitofp nneg i32 %.1 to double
  br label %.lr.ph53

.preheader44:                                     ; preds = %.preheader45
  %33 = icmp eq i32 %8, 1
  br i1 %33, label %.lr.ph53, label %._crit_edge

.lr.ph53:                                         ; preds = %.preheader44.thread, %.preheader44
  %.040.lcssa90 = phi double [ %32, %.preheader44.thread ], [ 0.000000e+00, %.preheader44 ]
  %34 = load ptr, ptr %2, align 8, !tbaa !86
  br label %45

35:                                               ; preds = %.lr.ph, %35
  %indvars.iv70 = phi i64 [ 1, %.lr.ph ], [ %indvars.iv.next71, %35 ]
  %.04050 = phi i32 [ 0, %.lr.ph ], [ %.1, %35 ]
  %36 = getelementptr inbounds nuw double, ptr %31, i64 %indvars.iv70
  %37 = load double, ptr %36, align 8, !tbaa !149
  %38 = zext nneg i32 %.04050 to i64
  %39 = getelementptr inbounds nuw double, ptr %31, i64 %38
  %40 = load double, ptr %39, align 8, !tbaa !149
  %41 = fcmp ogt double %37, %40
  %42 = trunc nuw nsw i64 %indvars.iv70 to i32
  %.1 = select i1 %41, i32 %42, i32 %.04050
  %indvars.iv.next71 = add nuw nsw i64 %indvars.iv70, 1
  %exitcond74.not = icmp eq i64 %indvars.iv.next71, %wide.trip.count73
  br i1 %exitcond74.not, label %.preheader44.thread, label %35, !llvm.loop !312

.preheader43:                                     ; preds = %45
  %43 = icmp sgt i32 %52, 0
  br i1 %43, label %.lr.ph57, label %._crit_edge

.lr.ph57:                                         ; preds = %.preheader43
  %44 = load ptr, ptr %2, align 8, !tbaa !86
  %wide.trip.count81 = zext nneg i32 %52 to i64
  br label %56

45:                                               ; preds = %.lr.ph53, %45
  %indvars.iv75 = phi i64 [ 0, %.lr.ph53 ], [ %indvars.iv.next76, %45 ]
  %46 = getelementptr inbounds nuw double, ptr %34, i64 %indvars.iv75
  %47 = load double, ptr %46, align 8, !tbaa !149
  %48 = fneg double %47
  %49 = tail call double @exp(double noundef %48) #26, !tbaa !111
  %50 = fadd double %49, 1.000000e+00
  %51 = fdiv double 1.000000e+00, %50
  store double %51, ptr %46, align 8, !tbaa !149
  %indvars.iv.next76 = add nuw nsw i64 %indvars.iv75, 1
  %52 = load i32, ptr %29, align 8, !tbaa !220
  %53 = sext i32 %52 to i64
  %54 = icmp slt i64 %indvars.iv.next76, %53
  br i1 %54, label %45, label %.preheader43, !llvm.loop !313

.lr.ph60:                                         ; preds = %56
  %55 = load ptr, ptr %2, align 8, !tbaa !86
  %wide.trip.count86 = zext nneg i32 %52 to i64
  br label %60

56:                                               ; preds = %.lr.ph57, %56
  %indvars.iv78 = phi i64 [ 0, %.lr.ph57 ], [ %indvars.iv.next79, %56 ]
  %.03755 = phi double [ 0.000000e+00, %.lr.ph57 ], [ %59, %56 ]
  %57 = getelementptr inbounds nuw double, ptr %44, i64 %indvars.iv78
  %58 = load double, ptr %57, align 8, !tbaa !149
  %59 = fadd double %.03755, %58
  %indvars.iv.next79 = add nuw nsw i64 %indvars.iv78, 1
  %exitcond82.not = icmp eq i64 %indvars.iv.next79, %wide.trip.count81
  br i1 %exitcond82.not, label %.lr.ph60, label %56, !llvm.loop !314

._crit_edge:                                      ; preds = %60, %.preheader43, %.preheader46.lr.ph, %.preheader44
  %.040.lcssa8995101 = phi double [ 0.000000e+00, %.preheader44 ], [ 0.000000e+00, %.preheader46.lr.ph ], [ %.040.lcssa90, %.preheader43 ], [ %.040.lcssa90, %60 ]
  ret double %.040.lcssa8995101

60:                                               ; preds = %.lr.ph60, %60
  %indvars.iv83 = phi i64 [ 0, %.lr.ph60 ], [ %indvars.iv.next84, %60 ]
  %61 = getelementptr inbounds nuw double, ptr %55, i64 %indvars.iv83
  %62 = load double, ptr %61, align 8, !tbaa !149
  %63 = fdiv double %62, %59
  store double %63, ptr %61, align 8, !tbaa !149
  %indvars.iv.next84 = add nuw nsw i64 %indvars.iv83, 1
  %exitcond87.not = icmp eq i64 %indvars.iv.next84, %wide.trip.count86
  br i1 %exitcond87.not, label %._crit_edge, label %60, !llvm.loop !315
}